target datalayout = "e-m:e-p270:32:32-p271:32:32-p272:64:64-i64:64-i128:128-f80:128-n8:16:32:64-S128"
target triple = "x86_64-pc-linux-gnu"

%struct.H5I_search_ud_t = type { ptr, ptr, ptr }

@H5_libinit_g = external global i8, align 1
@H5_libterm_g = external global i8, align 1
@.str = private unnamed_addr constant [97 x i8] c"generated/home/dtcxzyw/WorkSpace/Projects/compilers/llvm-opt-benchmark/bench/hdf5/hdf5/src/H5I.c\00", align 1
@H5E_FUNC_g = external global i64, align 8
@H5E_CANTINIT_g = external global i64, align 8
@.str.1 = private unnamed_addr constant [30 x i8] c"library initialization failed\00", align 1
@H5E_CANTSET_g = external global i64, align 8
@.str.2 = private unnamed_addr constant [22 x i8] c"can't set API context\00", align 1
@H5E_ID_g = external global i64, align 8
@H5E_BADGROUP_g = external global i64, align 8
@.str.6 = private unnamed_addr constant [44 x i8] c"cannot call public function on library type\00", align 1
@__func__.H5Isearch = private unnamed_addr constant [10 x i8] c"H5Isearch\00", align 1

; Function Attrs: nounwind uwtable
define ptr @H5Isearch(i32 noundef %0, ptr noundef %1, ptr noundef %2) #0 {
  %4 = alloca i32, align 4
  %5 = alloca ptr, align 8
  %6 = alloca ptr, align 8
  %7 = alloca %struct.H5I_search_ud_t, align 8
  %8 = alloca ptr, align 8
  %9 = alloca i8, align 1
  %10 = alloca i8, align 1
  store i32 %0, ptr %4, align 4
  store ptr %1, ptr %5, align 8
  store ptr %2, ptr %6, align 8
  store ptr null, ptr %8, align 8
  store i8 0, ptr %9, align 1
  store i8 0, ptr %10, align 1
  %11 = load i8, ptr @H5_libinit_g, align 1
  %12 = trunc i8 %11 to i1
  br i1 %12, label %17, label %13

13:                                               ; preds = %3
  %14 = load i8, ptr @H5_libterm_g, align 1
  %15 = trunc i8 %14 to i1
  %16 = xor i1 %15, true
  br label %17

17:                                               ; preds = %13, %3
  %18 = phi i1 [ false, %3 ], [ %16, %13 ]
  %19 = xor i1 %18, true
  %20 = xor i1 %19, true
  %21 = zext i1 %20 to i32
  %22 = sext i32 %21 to i64
  %23 = icmp ne i64 %22, 0
  br i1 %23, label %24, label %48

24:                                               ; preds = %17
  %25 = call i32 @H5_init_library()
  %26 = icmp slt i32 %25, 0
  %27 = xor i1 %26, true
  %28 = xor i1 %27, true
  %29 = zext i1 %28 to i32
  %30 = sext i32 %29 to i64
  %31 = icmp ne i64 %30, 0
  br i1 %31, label %32, label %47

32:                                               ; preds = %24
  br label %33

33:                                               ; preds = %32
  br label %34

34:                                               ; preds = %33
  br label %35

35:                                               ; preds = %34
  %36 = load i64, ptr @H5E_FUNC_g, align 8
  %37 = load i64, ptr @H5E_CANTINIT_g, align 8
  %38 = call i32 (ptr, ptr, i32, i64, i64, ptr, ...) @H5E_printf_stack(ptr noundef @.str, ptr noundef @__func__.H5Isearch, i32 noundef 716, i64 noundef %36, i64 noundef %37, ptr noundef @.str.1)
  br label %39

39:                                               ; preds = %35
  store i8 1, ptr %10, align 1
  %40 = load i8, ptr %10, align 1
  %41 = trunc i8 %40 to i1
  %42 = zext i1 %41 to i8
  store i8 %42, ptr %10, align 1
  br label %43

43:                                               ; preds = %39
  br label %44

44:                                               ; preds = %43
  store ptr null, ptr %8, align 8
  br label %104

45:                                               ; No predecessors!
  br label %46

46:                                               ; preds = %45
  br label %47

47:                                               ; preds = %46, %24
  br label %48

48:                                               ; preds = %47, %17
  %49 = call i32 @H5CX_push()
  %50 = icmp slt i32 %49, 0
  %51 = xor i1 %50, true
  %52 = xor i1 %51, true
  %53 = zext i1 %52 to i32
  %54 = sext i32 %53 to i64
  %55 = icmp ne i64 %54, 0
  br i1 %55, label %56, label %71

56:                                               ; preds = %48
  br label %57

57:                                               ; preds = %56
  br label %58

58:                                               ; preds = %57
  br label %59

59:                                               ; preds = %58
  %60 = load i64, ptr @H5E_FUNC_g, align 8
  %61 = load i64, ptr @H5E_CANTSET_g, align 8
  %62 = call i32 (ptr, ptr, i32, i64, i64, ptr, ...) @H5E_printf_stack(ptr noundef @.str, ptr noundef @__func__.H5Isearch, i32 noundef 716, i64 noundef %60, i64 noundef %61, ptr noundef @.str.2)
  br label %63

63:                                               ; preds = %59
  store i8 1, ptr %10, align 1
  %64 = load i8, ptr %10, align 1
  %65 = trunc i8 %64 to i1
  %66 = zext i1 %65 to i8
  store i8 %66, ptr %10, align 1
  br label %67

67:                                               ; preds = %63
  br label %68

68:                                               ; preds = %67
  store ptr null, ptr %8, align 8
  br label %104

69:                                               ; No predecessors!
  br label %70

70:                                               ; preds = %69
  br label %72

71:                                               ; preds = %48
  store i8 1, ptr %9, align 1
  br label %72

72:                                               ; preds = %71, %70
  %73 = call i32 @H5E_clear_stack()
  %74 = load i32, ptr %4, align 4
  %75 = icmp sgt i32 %74, 0
  br i1 %75, label %76, label %94

76:                                               ; preds = %72
  %77 = load i32, ptr %4, align 4
  %78 = icmp slt i32 %77, 17
  br i1 %78, label %79, label %94

79:                                               ; preds = %76
  br label %80

80:                                               ; preds = %79
  br label %81

81:                                               ; preds = %80
  br label %82

82:                                               ; preds = %81
  %83 = load i64, ptr @H5E_ID_g, align 8
  %84 = load i64, ptr @H5E_BADGROUP_g, align 8
  %85 = call i32 (ptr, ptr, i32, i64, i64, ptr, ...) @H5E_printf_stack(ptr noundef @.str, ptr noundef @__func__.H5Isearch, i32 noundef 720, i64 noundef %83, i64 noundef %84, ptr noundef @.str.6)
  br label %86

86:                                               ; preds = %82
  store i8 1, ptr %10, align 1
  %87 = load i8, ptr %10, align 1
  %88 = trunc i8 %87 to i1
  %89 = zext i1 %88 to i8
  store i8 %89, ptr %10, align 1
  br label %90

90:                                               ; preds = %86
  br label %91

91:                                               ; preds = %90
  store ptr null, ptr %8, align 8
  br label %104

92:                                               ; No predecessors!
  br label %93

93:                                               ; preds = %92
  br label %94

94:                                               ; preds = %93, %76, %72
  %95 = load ptr, ptr %5, align 8
  %96 = getelementptr inbounds %struct.H5I_search_ud_t, ptr %7, i32 0, i32 0
  store ptr %95, ptr %96, align 8
  %97 = load ptr, ptr %6, align 8
  %98 = getelementptr inbounds %struct.H5I_search_ud_t, ptr %7, i32 0, i32 1
  store ptr %97, ptr %98, align 8
  %99 = getelementptr inbounds %struct.H5I_search_ud_t, ptr %7, i32 0, i32 2
  store ptr null, ptr %99, align 8
  %100 = load i32, ptr %4, align 4
  %101 = call i32 @H5I_iterate(i32 noundef %100, ptr noundef @H5I__search_cb, ptr noundef %7, i1 noundef zeroext true)
  %102 = getelementptr inbounds %struct.H5I_search_ud_t, ptr %7, i32 0, i32 2
  %103 = load ptr, ptr %102, align 8
  store ptr %103, ptr %8, align 8
  br label %104

104:                                              ; preds = %94, %91, %68, %44
  %105 = load i8, ptr %9, align 1
  %106 = trunc i8 %105 to i1
  %107 = xor i1 %106, true
  %108 = xor i1 %107, true
  %109 = zext i1 %108 to i32
  %110 = sext i32 %109 to i64
  %111 = icmp ne i64 %110, 0
  br i1 %111, label %112, label %114

112:                                              ; preds = %104
  %113 = call i32 @H5CX_pop(i1 noundef zeroext true)
  store i8 0, ptr %9, align 1
  br label %114

114:                                              ; preds = %112, %104
  %115 = load i8, ptr %10, align 1
  %116 = trunc i8 %115 to i1
  %117 = xor i1 %116, true
  %118 = xor i1 %117, true
  %119 = zext i1 %118 to i32
  %120 = sext i32 %119 to i64
  %121 = icmp ne i64 %120, 0
  br i1 %121, label %122, label %124

122:                                              ; preds = %114
  %123 = call i32 @H5E_dump_api_stack()
  br label %124

124:                                              ; preds = %122, %114
  %125 = load ptr, ptr %8, align 8
  ret ptr %125
}