; Function Attrs: nounwind uwtable
define ptr @H5Isearch(i32 noundef %0, ptr noundef %1, ptr noundef %2) local_unnamed_addr #0 {
  %4 = alloca %struct.H5I_search_ud_t, align 8
  %5 = load i8, ptr @H5_libinit_g, align 1
  %6 = trunc i8 %5 to i1
  %7 = load i8, ptr @H5_libterm_g, align 1
  %8 = trunc i8 %7 to i1
  %9 = select i1 %6, i1 true, i1 %8
  br i1 %9, label %17, label %10

10:                                               ; preds = %3
  %11 = tail call i32 @H5_init_library() #3
  %12 = icmp slt i32 %11, 0
  br i1 %12, label %13, label %17

13:                                               ; preds = %10
  %14 = load i64, ptr @H5E_FUNC_g, align 8
  %15 = load i64, ptr @H5E_CANTINIT_g, align 8
  %16 = tail call i32 (ptr, ptr, i32, i64, i64, ptr, ...) @H5E_printf_stack(ptr noundef nonnull @.str, ptr noundef nonnull @__func__.H5Isearch, i32 noundef 716, i64 noundef %14, i64 noundef %15, ptr noundef nonnull @.str.1) #3
  br label %.thread21

17:                                               ; preds = %10, %3
  %18 = tail call i32 @H5CX_push() #3
  %19 = icmp slt i32 %18, 0
  br i1 %19, label %20, label %24

20:                                               ; preds = %17
  %21 = load i64, ptr @H5E_FUNC_g, align 8
  %22 = load i64, ptr @H5E_CANTSET_g, align 8
  %23 = tail call i32 (ptr, ptr, i32, i64, i64, ptr, ...) @H5E_printf_stack(ptr noundef nonnull @.str, ptr noundef nonnull @__func__.H5Isearch, i32 noundef 716, i64 noundef %21, i64 noundef %22, ptr noundef nonnull @.str.2) #3
  br label %.thread21

24:                                               ; preds = %17
  %25 = tail call i32 @H5E_clear_stack() #3
  %26 = add i32 %0, -1
  %or.cond = icmp ult i32 %26, 16
  br i1 %or.cond, label %.thread26, label %31

.thread26:                                        ; preds = %24
  %27 = load i64, ptr @H5E_ID_g, align 8
  %28 = load i64, ptr @H5E_BADGROUP_g, align 8
  %29 = tail call i32 (ptr, ptr, i32, i64, i64, ptr, ...) @H5E_printf_stack(ptr noundef nonnull @.str, ptr noundef nonnull @__func__.H5Isearch, i32 noundef 720, i64 noundef %27, i64 noundef %28, ptr noundef nonnull @.str.6) #3
  %30 = tail call i32 @H5CX_pop(i1 noundef zeroext true) #3
  br label %.thread21

31:                                               ; preds = %24
  store ptr %1, ptr %4, align 8
  %32 = getelementptr inbounds i8, ptr %4, i64 8
  store ptr %2, ptr %32, align 8
  %33 = getelementptr inbounds i8, ptr %4, i64 16
  store ptr null, ptr %33, align 8
  %34 = call i32 @H5I_iterate(i32 noundef %0, ptr noundef nonnull @H5I__search_cb, ptr noundef nonnull %4, i1 noundef zeroext true) #3
  %35 = load ptr, ptr %33, align 8
  %36 = call i32 @H5CX_pop(i1 noundef zeroext true) #3
  br label %38

.thread21:                                        ; preds = %20, %13, %.thread26
  %37 = tail call i32 @H5E_dump_api_stack() #3
  br label %38

38:                                               ; preds = %31, %.thread21
  %.0121624 = phi ptr [ null, %.thread21 ], [ %35, %31 ]
  ret ptr %.0121624
}